target datalayout = "e-m:e-p270:32:32-p271:32:32-p272:64:64-i64:64-i128:128-f80:128-n8:16:32:64-S128"
target triple = "x86_64-pc-linux-gnu"

%struct.Sfm_Ntk_t_ = type { ptr, i32, i32, i32, i32, i32, ptr, ptr, ptr, %struct.Vec_Wec_t_, ptr, ptr, %struct.Vec_Wec_t_, %struct.Vec_Int_t_, %struct.Vec_Int_t_, %struct.Vec_Int_t_, %struct.Vec_Int_t_, %struct.Vec_Int_t_, ptr, ptr, %struct.Vec_Int_t_, %struct.Vec_Int_t_, i32, i32, i32, ptr, ptr, ptr, ptr, ptr, i32, i32, i32, i32, i32, i32, i32, i32, ptr, ptr, ptr, ptr, ptr, ptr, ptr, ptr, [12 x [64 x i64]], [12 x ptr], [64 x i64], [64 x i64], i32, i32, i32, i32, i32, i32, i32, i32, i32, i64, i64, i64, i64, i64, i64 }
%struct.Vec_Wec_t_ = type { i32, i32, ptr }
%struct.Vec_Int_t_ = type { i32, i32, ptr }
%struct.Vec_Wrd_t_ = type { i32, i32, ptr }
%struct.Vec_Str_t_ = type { i32, i32, ptr }

@.str.24 = private unnamed_addr constant [11 x i8] c"Obj %3d : \00", align 1
@.str.25 = private unnamed_addr constant [11 x i8] c"Fixed %d  \00", align 1
@.str.26 = private unnamed_addr constant [11 x i8] c"Empty %d  \00", align 1
@.str.27 = private unnamed_addr constant [8 x i8] c"Truth  \00", align 1
@stdout = external global ptr, align 8
@.str.28 = private unnamed_addr constant [3 x i8] c"  \00", align 1
@.str.33 = private unnamed_addr constant [25 x i8] c"Vector has %d entries: {\00", align 1
@.str.34 = private unnamed_addr constant [4 x i8] c" %d\00", align 1
@.str.35 = private unnamed_addr constant [4 x i8] c" }\0A\00", align 1

; Function Attrs: inlinehint nounwind uwtable
define internal i32 @Vec_IntEntry(ptr noundef %0, i32 noundef %1) #3 {
  %3 = alloca ptr, align 8
  %4 = alloca i32, align 4
  store ptr %0, ptr %3, align 8, !tbaa !77
  store i32 %1, ptr %4, align 4, !tbaa !60
  %5 = load ptr, ptr %3, align 8, !tbaa !77
  %6 = getelementptr inbounds nuw %struct.Vec_Int_t_, ptr %5, i32 0, i32 2
  %7 = load ptr, ptr %6, align 8, !tbaa !86
  %8 = load i32, ptr %4, align 4, !tbaa !60
  %9 = sext i32 %8 to i64
  %10 = getelementptr inbounds i32, ptr %7, i64 %9
  %11 = load i32, ptr %10, align 4, !tbaa !60
  ret i32 %11
}

; Function Attrs: inlinehint nounwind uwtable
define internal void @Vec_IntPrint(ptr noundef %0) #3 {
  %2 = alloca ptr, align 8
  %3 = alloca i32, align 4
  %4 = alloca i32, align 4
  store ptr %0, ptr %2, align 8, !tbaa !77
  call void @llvm.lifetime.start.p0(i64 4, ptr %3) #10
  call void @llvm.lifetime.start.p0(i64 4, ptr %4) #10
  %5 = load ptr, ptr %2, align 8, !tbaa !77
  %6 = call i32 @Vec_IntSize(ptr noundef %5)
  %7 = call i32 (ptr, ...) @printf(ptr noundef @.str.33, i32 noundef %6)
  store i32 0, ptr %3, align 4, !tbaa !60
  br label %8

8:                                                ; preds = %22, %1
  %9 = load i32, ptr %3, align 4, !tbaa !60
  %10 = load ptr, ptr %2, align 8, !tbaa !77
  %11 = call i32 @Vec_IntSize(ptr noundef %10)
  %12 = icmp slt i32 %9, %11
  br i1 %12, label %13, label %17

13:                                               ; preds = %8
  %14 = load ptr, ptr %2, align 8, !tbaa !77
  %15 = load i32, ptr %3, align 4, !tbaa !60
  %16 = call i32 @Vec_IntEntry(ptr noundef %14, i32 noundef %15)
  store i32 %16, ptr %4, align 4, !tbaa !60
  br label %17

17:                                               ; preds = %13, %8
  %18 = phi i1 [ false, %8 ], [ true, %13 ]
  br i1 %18, label %19, label %25

19:                                               ; preds = %17
  %20 = load i32, ptr %4, align 4, !tbaa !60
  %21 = call i32 (ptr, ...) @printf(ptr noundef @.str.34, i32 noundef %20)
  br label %22

22:                                               ; preds = %19
  %23 = load i32, ptr %3, align 4, !tbaa !60
  %24 = add nsw i32 %23, 1
  store i32 %24, ptr %3, align 4, !tbaa !60
  br label %8, !llvm.loop !103

25:                                               ; preds = %17
  %26 = call i32 (ptr, ...) @printf(ptr noundef @.str.35)
  call void @llvm.lifetime.end.p0(i64 4, ptr %4) #10
  call void @llvm.lifetime.end.p0(i64 4, ptr %3) #10
  ret void
}

; Function Attrs: inlinehint nounwind uwtable
define internal i32 @Vec_IntSize(ptr noundef %0) #3 {
  %2 = alloca ptr, align 8
  store ptr %0, ptr %2, align 8, !tbaa !77
  %3 = load ptr, ptr %2, align 8, !tbaa !77
  %4 = getelementptr inbounds nuw %struct.Vec_Int_t_, ptr %3, i32 0, i32 1
  %5 = load i32, ptr %4, align 4, !tbaa !78
  ret i32 %5
}

; Function Attrs: inlinehint nounwind uwtable
define internal ptr @Vec_WrdEntryP(ptr noundef %0, i32 noundef %1) #3 {
  %3 = alloca ptr, align 8
  %4 = alloca i32, align 4
  store ptr %0, ptr %3, align 8, !tbaa !79
  store i32 %1, ptr %4, align 4, !tbaa !60
  %5 = load ptr, ptr %3, align 8, !tbaa !79
  %6 = getelementptr inbounds nuw %struct.Vec_Wrd_t_, ptr %5, i32 0, i32 2
  %7 = load ptr, ptr %6, align 8, !tbaa !80
  %8 = load i32, ptr %4, align 4, !tbaa !60
  %9 = sext i32 %8 to i64
  %10 = getelementptr inbounds i64, ptr %7, i64 %9
  ret ptr %10
}

; Function Attrs: inlinehint nounwind uwtable
define internal signext i8 @Vec_StrEntry(ptr noundef %0, i32 noundef %1) #3 {
  %3 = alloca ptr, align 8
  %4 = alloca i32, align 4
  store ptr %0, ptr %3, align 8, !tbaa !99
  store i32 %1, ptr %4, align 4, !tbaa !60
  %5 = load ptr, ptr %3, align 8, !tbaa !99
  %6 = getelementptr inbounds nuw %struct.Vec_Str_t_, ptr %5, i32 0, i32 2
  %7 = load ptr, ptr %6, align 8, !tbaa !100
  %8 = load i32, ptr %4, align 4, !tbaa !60
  %9 = sext i32 %8 to i64
  %10 = getelementptr inbounds i8, ptr %7, i64 %9
  %11 = load i8, ptr %10, align 1, !tbaa !102
  ret i8 %11
}

; Function Attrs: inlinehint nounwind uwtable
define internal ptr @Vec_WecEntry(ptr noundef %0, i32 noundef %1) #3 {
  %3 = alloca ptr, align 8
  %4 = alloca i32, align 4
  store ptr %0, ptr %3, align 8, !tbaa !93
  store i32 %1, ptr %4, align 4, !tbaa !60
  %5 = load ptr, ptr %3, align 8, !tbaa !93
  %6 = getelementptr inbounds nuw %struct.Vec_Wec_t_, ptr %5, i32 0, i32 2
  %7 = load ptr, ptr %6, align 8, !tbaa !94
  %8 = load i32, ptr %4, align 4, !tbaa !60
  %9 = sext i32 %8 to i64
  %10 = getelementptr inbounds %struct.Vec_Int_t_, ptr %7, i64 %9
  ret ptr %10
}

; Function Attrs: nounwind uwtable
define void @Sfm_NtkPrint(ptr noundef %0) #0 {
  %2 = alloca ptr, align 8
  %3 = alloca i32, align 4
  %4 = alloca ptr, align 8
  store ptr %0, ptr %2, align 8, !tbaa !22
  call void @llvm.lifetime.start.p0(i64 4, ptr %3) #10
  store i32 0, ptr %3, align 4, !tbaa !60
  br label %5

5:                                                ; preds = %43, %1
  %6 = load i32, ptr %3, align 4, !tbaa !60
  %7 = load ptr, ptr %2, align 8, !tbaa !22
  %8 = getelementptr inbounds nuw %struct.Sfm_Ntk_t_, ptr %7, i32 0, i32 4
  %9 = load i32, ptr %8, align 4, !tbaa !57
  %10 = icmp slt i32 %6, %9
  br i1 %10, label %11, label %46

11:                                               ; preds = %5
  call void @llvm.lifetime.start.p0(i64 8, ptr %4) #10
  %12 = load ptr, ptr %2, align 8, !tbaa !22
  %13 = getelementptr inbounds nuw %struct.Sfm_Ntk_t_, ptr %12, i32 0, i32 9
  %14 = load i32, ptr %3, align 4, !tbaa !60
  %15 = call ptr @Vec_WecEntry(ptr noundef %13, i32 noundef %14)
  store ptr %15, ptr %4, align 8, !tbaa !77
  %16 = load i32, ptr %3, align 4, !tbaa !60
  %17 = call i32 (ptr, ...) @printf(ptr noundef @.str.24, i32 noundef %16)
  %18 = load ptr, ptr %2, align 8, !tbaa !22
  %19 = getelementptr inbounds nuw %struct.Sfm_Ntk_t_, ptr %18, i32 0, i32 6
  %20 = load ptr, ptr %19, align 8, !tbaa !87
  %21 = load i32, ptr %3, align 4, !tbaa !60
  %22 = call signext i8 @Vec_StrEntry(ptr noundef %20, i32 noundef %21)
  %23 = sext i8 %22 to i32
  %24 = call i32 (ptr, ...) @printf(ptr noundef @.str.25, i32 noundef %23)
  %25 = load ptr, ptr %2, align 8, !tbaa !22
  %26 = getelementptr inbounds nuw %struct.Sfm_Ntk_t_, ptr %25, i32 0, i32 7
  %27 = load ptr, ptr %26, align 8, !tbaa !97
  %28 = load i32, ptr %3, align 4, !tbaa !60
  %29 = call signext i8 @Vec_StrEntry(ptr noundef %27, i32 noundef %28)
  %30 = sext i8 %29 to i32
  %31 = call i32 (ptr, ...) @printf(ptr noundef @.str.26, i32 noundef %30)
  %32 = call i32 (ptr, ...) @printf(ptr noundef @.str.27)
  %33 = load ptr, ptr @stdout, align 8, !tbaa !63
  %34 = load ptr, ptr %2, align 8, !tbaa !22
  %35 = getelementptr inbounds nuw %struct.Sfm_Ntk_t_, ptr %34, i32 0, i32 8
  %36 = load ptr, ptr %35, align 8, !tbaa !90
  %37 = load i32, ptr %3, align 4, !tbaa !60
  %38 = call ptr @Vec_WrdEntryP(ptr noundef %36, i32 noundef %37)
  %39 = load ptr, ptr %4, align 8, !tbaa !77
  %40 = call i32 @Vec_IntSize(ptr noundef %39)
  call void @Extra_PrintHex(ptr noundef %33, ptr noundef %38, i32 noundef %40)
  %41 = call i32 (ptr, ...) @printf(ptr noundef @.str.28)
  %42 = load ptr, ptr %4, align 8, !tbaa !77
  call void @Vec_IntPrint(ptr noundef %42)
  call void @llvm.lifetime.end.p0(i64 8, ptr %4) #10
  br label %43

43:                                               ; preds = %11
  %44 = load i32, ptr %3, align 4, !tbaa !60
  %45 = add nsw i32 %44, 1
  store i32 %45, ptr %3, align 4, !tbaa !60
  br label %5, !llvm.loop !98

46:                                               ; preds = %5
  call void @llvm.lifetime.end.p0(i64 4, ptr %3) #10
  ret void
}