; Function Attrs: nounwind uwtable
define void @Sfm_NtkPrint(ptr noundef readonly captures(none) %0) local_unnamed_addr #2 {
  %2 = getelementptr inbounds nuw i8, ptr %0, i64 20
  %3 = load i32, ptr %2, align 4, !tbaa !34
  %4 = icmp sgt i32 %3, 0
  br i1 %4, label %.lr.ph, label %._crit_edge

.lr.ph:                                           ; preds = %1
  %5 = getelementptr i8, ptr %0, i64 64
  %6 = getelementptr inbounds nuw i8, ptr %0, i64 32
  %7 = getelementptr inbounds nuw i8, ptr %0, i64 40
  %8 = getelementptr inbounds nuw i8, ptr %0, i64 48
  br label %9

9:                                                ; preds = %.lr.ph, %Vec_IntPrint.exit
  %indvars.iv = phi i64 [ 0, %.lr.ph ], [ %indvars.iv.next, %Vec_IntPrint.exit ]
  %.val = load ptr, ptr %5, align 8, !tbaa !60
  %10 = getelementptr inbounds nuw %struct.Vec_Int_t_, ptr %.val, i64 %indvars.iv
  %11 = trunc nuw nsw i64 %indvars.iv to i32
  %12 = tail call i32 (ptr, ...) @printf(ptr noundef nonnull dereferenceable(1) @.str.24, i32 noundef %11)
  %13 = load ptr, ptr %6, align 8, !tbaa !77
  %14 = getelementptr i8, ptr %13, i64 8
  %.val14 = load ptr, ptr %14, align 8, !tbaa !78
  %15 = getelementptr inbounds nuw i8, ptr %.val14, i64 %indvars.iv
  %16 = load i8, ptr %15, align 1, !tbaa !81
  %17 = sext i8 %16 to i32
  %18 = tail call i32 (ptr, ...) @printf(ptr noundef nonnull dereferenceable(1) @.str.25, i32 noundef %17)
  %19 = load ptr, ptr %7, align 8, !tbaa !93
  %20 = getelementptr i8, ptr %19, i64 8
  %.val15 = load ptr, ptr %20, align 8, !tbaa !78
  %21 = getelementptr inbounds nuw i8, ptr %.val15, i64 %indvars.iv
  %22 = load i8, ptr %21, align 1, !tbaa !81
  %23 = sext i8 %22 to i32
  %24 = tail call i32 (ptr, ...) @printf(ptr noundef nonnull dereferenceable(1) @.str.26, i32 noundef %23)
  %25 = tail call i32 (ptr, ...) @printf(ptr noundef nonnull dereferenceable(1) @.str.27)
  %26 = load ptr, ptr @stdout, align 8, !tbaa !55
  %27 = load ptr, ptr %8, align 8, !tbaa !88
  %28 = getelementptr i8, ptr %27, i64 8
  %.val16 = load ptr, ptr %28, align 8, !tbaa !70
  %29 = getelementptr inbounds nuw i64, ptr %.val16, i64 %indvars.iv
  %30 = getelementptr i8, ptr %10, i64 4
  %.val13 = load i32, ptr %30, align 4, !tbaa !63
  tail call void @Extra_PrintHex(ptr noundef %26, ptr noundef %29, i32 noundef %.val13) #15
  %31 = tail call i32 (ptr, ...) @printf(ptr noundef nonnull dereferenceable(1) @.str.28)
  %.val6.i = load i32, ptr %30, align 4, !tbaa !63
  %32 = tail call i32 (ptr, ...) @printf(ptr noundef nonnull dereferenceable(1) @.str.33, i32 noundef %.val6.i)
  %.val8.i = load i32, ptr %30, align 4, !tbaa !63
  %33 = icmp sgt i32 %.val8.i, 0
  br i1 %33, label %.lr.ph.i, label %Vec_IntPrint.exit

.lr.ph.i:                                         ; preds = %9
  %34 = getelementptr i8, ptr %10, i64 8
  br label %35

35:                                               ; preds = %35, %.lr.ph.i
  %indvars.iv.i = phi i64 [ 0, %.lr.ph.i ], [ %indvars.iv.next.i, %35 ]
  %.val7.i = load ptr, ptr %34, align 8, !tbaa !61
  %36 = getelementptr inbounds nuw i32, ptr %.val7.i, i64 %indvars.iv.i
  %37 = load i32, ptr %36, align 4, !tbaa !54
  %38 = tail call i32 (ptr, ...) @printf(ptr noundef nonnull dereferenceable(1) @.str.34, i32 noundef %37)
  %indvars.iv.next.i = add nuw nsw i64 %indvars.iv.i, 1
  %.val.i = load i32, ptr %30, align 4, !tbaa !63
  %39 = sext i32 %.val.i to i64
  %40 = icmp slt i64 %indvars.iv.next.i, %39
  br i1 %40, label %35, label %Vec_IntPrint.exit, !llvm.loop !94

Vec_IntPrint.exit:                                ; preds = %35, %9
  %puts.i = tail call i32 @puts(ptr nonnull dereferenceable(1) @str)
  %indvars.iv.next = add nuw nsw i64 %indvars.iv, 1
  %41 = load i32, ptr %2, align 4, !tbaa !34
  %42 = sext i32 %41 to i64
  %43 = icmp slt i64 %indvars.iv.next, %42
  br i1 %43, label %9, label %._crit_edge, !llvm.loop !95

._crit_edge:                                      ; preds = %Vec_IntPrint.exit, %1
  ret void
}